; Function Attrs: mustprogress uwtable
define dso_local void @_ZN4Luau7vformatB5cxx11EPKcP13__va_list_tag(ptr dead_on_unwind noalias nonnull writable sret(%"class.std::__cxx11::basic_string") align 8 %0, ptr nocapture noundef readonly %1, ptr noundef %2) local_unnamed_addr #0 personality ptr @__gxx_personality_v0 {
  %4 = alloca [1 x %struct.__va_list_tag], align 16
  tail call void @_ZNSt7__cxx1112basic_stringIcSt11char_traitsIcESaIcEEC1Ev(ptr noundef nonnull align 8 dereferenceable(32) %0) #20
  call void @llvm.lifetime.start.p0(i64 24, ptr nonnull %4)
  call void @llvm.va_copy.p0(ptr nonnull %4, ptr %2)
  %5 = call i32 @vsnprintf(ptr noundef null, i64 noundef 0, ptr noundef readonly %1, ptr noundef nonnull %4) #20
  call void @llvm.va_end.p0(ptr nonnull %4)
  %6 = icmp slt i32 %5, 1
  br i1 %6, label %18, label %7

7:                                                ; preds = %3
  %8 = call noundef i64 @_ZNKSt7__cxx1112basic_stringIcSt11char_traitsIcESaIcEE4sizeEv(ptr noundef nonnull align 8 dereferenceable(32) %0) #20
  %9 = zext nneg i32 %5 to i64
  %10 = add i64 %8, %9
  invoke void @_ZNSt7__cxx1112basic_stringIcSt11char_traitsIcESaIcEE6resizeEm(ptr noundef nonnull align 8 dereferenceable(32) %0, i64 noundef %10)
          to label %.noexc unwind label %16

.noexc:                                           ; preds = %7
  %11 = invoke noundef nonnull align 1 dereferenceable(1) ptr @_ZNSt7__cxx1112basic_stringIcSt11char_traitsIcESaIcEEixEm(ptr noundef nonnull align 8 dereferenceable(32) %0, i64 noundef 0)
          to label %.noexc4 unwind label %16

.noexc4:                                          ; preds = %.noexc
  %12 = getelementptr inbounds i8, ptr %11, i64 %8
  %13 = add nuw nsw i32 %5, 1
  %14 = zext nneg i32 %13 to i64
  %15 = call i32 @vsnprintf(ptr noundef nonnull %12, i64 noundef %14, ptr noundef readonly %1, ptr noundef %2) #20
  br label %18

16:                                               ; preds = %.noexc, %7
  %17 = landingpad { ptr, i32 }
          cleanup
  call void @_ZNSt7__cxx1112basic_stringIcSt11char_traitsIcESaIcEED1Ev(ptr noundef nonnull align 8 dereferenceable(32) %0) #20
  resume { ptr, i32 } %17

18:                                               ; preds = %.noexc4, %3
  call void @llvm.lifetime.end.p0(i64 24, ptr nonnull %4)
  ret void
}